; Function Attrs: nounwind uwtable
define dso_local noundef i64 @ZSTD_freeCCtxParams(ptr noundef %0) local_unnamed_addr #1 {
  %2 = icmp eq ptr %0, null
  br i1 %2, label %ZSTD_customFree.exit, label %3

3:                                                ; preds = %1
  %4 = getelementptr i8, ptr %0, i64 160
  %.val = load ptr, ptr %4, align 8
  %.not4.i = icmp eq ptr %.val, null
  br i1 %.not4.i, label %7, label %5

5:                                                ; preds = %3
  %6 = getelementptr i8, ptr %0, i64 168
  %.val3 = load ptr, ptr %6, align 8
  tail call void %.val(ptr noundef %.val3, ptr noundef nonnull %0) #27
  br label %ZSTD_customFree.exit

7:                                                ; preds = %3
  tail call void @free(ptr noundef nonnull %0) #27
  br label %ZSTD_customFree.exit

ZSTD_customFree.exit:                             ; preds = %7, %5, %1
  ret i64 0
}